target datalayout = "e-m:e-p270:32:32-p271:32:32-p272:64:64-i64:64-i128:128-f80:128-n8:16:32:64-S128"
target triple = "x86_64-pc-linux-gnu"

@hf_ms_if_hdr_ver = internal global i32 0, align 4
@hf_ms_if_hdr_total_len = internal global i32 0, align 4
@.str.805 = private unnamed_addr constant [6 x i8] c"%2.2f\00", align 1

; Function Attrs: null_pointer_is_valid sspstrong uwtable
define internal i32 @dissect_ms_if_hdr_body(ptr noundef %0, i32 noundef %1, ptr noundef %2, ptr noundef %3, ptr noundef %4) #1 {
  %6 = alloca ptr, align 8
  %7 = alloca i32, align 4
  %8 = alloca ptr, align 8
  %9 = alloca ptr, align 8
  %10 = alloca ptr, align 8
  %11 = alloca i32, align 4
  %12 = alloca i16, align 2
  %13 = alloca i8, align 1
  %14 = alloca double, align 8
  store ptr %0, ptr %6, align 8
  store i32 %1, ptr %7, align 4
  store ptr %2, ptr %8, align 8
  store ptr %3, ptr %9, align 8
  store ptr %4, ptr %10, align 8
  call void @llvm.lifetime.start.p0(i64 4, ptr %11) #11
  call void @llvm.lifetime.start.p0(i64 2, ptr %12) #11
  call void @llvm.lifetime.start.p0(i64 1, ptr %13) #11
  call void @llvm.lifetime.start.p0(i64 8, ptr %14) #11
  %15 = load i32, ptr %7, align 4
  store i32 %15, ptr %11, align 4
  %16 = load ptr, ptr %6, align 8
  %17 = load i32, ptr %7, align 4
  %18 = call zeroext i16 @tvb_get_letohs(ptr noundef %16, i32 noundef %17)
  store i16 %18, ptr %12, align 2
  %19 = load i16, ptr %12, align 2
  %20 = zext i16 %19 to i32
  %21 = ashr i32 %20, 8
  %22 = and i32 %21, 240
  %23 = ashr i32 %22, 4
  %24 = mul i32 %23, 10
  %25 = load i16, ptr %12, align 2
  %26 = zext i16 %25 to i32
  %27 = ashr i32 %26, 8
  %28 = and i32 %27, 15
  %29 = add i32 %24, %28
  %30 = trunc i32 %29 to i8
  store i8 %30, ptr %13, align 1
  %31 = load i8, ptr %13, align 1
  %32 = zext i8 %31 to i32
  %33 = sitofp i32 %32 to double
  %34 = load i16, ptr %12, align 2
  %35 = zext i16 %34 to i32
  %36 = and i32 %35, 255
  %37 = and i32 %36, 240
  %38 = ashr i32 %37, 4
  %39 = mul i32 %38, 10
  %40 = load i16, ptr %12, align 2
  %41 = zext i16 %40 to i32
  %42 = and i32 %41, 255
  %43 = and i32 %42, 15
  %44 = add i32 %39, %43
  %45 = sitofp i32 %44 to double
  %46 = fdiv double %45, 1.000000e+02
  %47 = fadd double %33, %46
  store double %47, ptr %14, align 8
  %48 = load ptr, ptr %9, align 8
  %49 = load i32, ptr @hf_ms_if_hdr_ver, align 4
  %50 = load ptr, ptr %6, align 8
  %51 = load i32, ptr %7, align 4
  %52 = load double, ptr %14, align 8
  %53 = load double, ptr %14, align 8
  %54 = call ptr (ptr, i32, ptr, i32, i32, double, ptr, ...) @proto_tree_add_double_format_value(ptr noundef %48, i32 noundef %49, ptr noundef %50, i32 noundef %51, i32 noundef 2, double noundef %52, ptr noundef @.str.805, double noundef %53)
  %55 = load i32, ptr %7, align 4
  %56 = add i32 %55, 2
  store i32 %56, ptr %7, align 4
  %57 = load ptr, ptr %9, align 8
  %58 = load i32, ptr @hf_ms_if_hdr_total_len, align 4
  %59 = load ptr, ptr %6, align 8
  %60 = load i32, ptr %7, align 4
  %61 = call ptr @proto_tree_add_item(ptr noundef %57, i32 noundef %58, ptr noundef %59, i32 noundef %60, i32 noundef 2, i32 noundef -2147483648)
  %62 = load i32, ptr %7, align 4
  %63 = add i32 %62, 2
  store i32 %63, ptr %7, align 4
  %64 = load i32, ptr %7, align 4
  %65 = load i32, ptr %11, align 4
  %66 = sub i32 %64, %65
  call void @llvm.lifetime.end.p0(i64 8, ptr %14) #11
  call void @llvm.lifetime.end.p0(i64 1, ptr %13) #11
  call void @llvm.lifetime.end.p0(i64 2, ptr %12) #11
  call void @llvm.lifetime.end.p0(i64 4, ptr %11) #11
  ret i32 %66
}