; Function Attrs: null_pointer_is_valid sspstrong uwtable
define internal fastcc void @dissect_ms_if_hdr_body(ptr noundef %0, ptr noundef %1) unnamed_addr #1 {
  %3 = tail call zeroext i16 @tvb_get_letohs(ptr noundef %0, i32 noundef 3)
  %4 = lshr i16 %3, 8
  %5 = lshr i16 %3, 12
  %6 = mul nuw nsw i16 %5, 10
  %7 = and i16 %4, 15
  %8 = add nuw nsw i16 %6, %7
  %9 = uitofp nneg i16 %8 to double
  %10 = and i16 %3, 255
  %11 = zext nneg i16 %10 to i32
  %12 = lshr i32 %11, 4
  %13 = mul nuw nsw i32 %12, 10
  %14 = and i32 %11, 15
  %15 = add nuw nsw i32 %13, %14
  %16 = uitofp nneg i32 %15 to double
  %17 = fdiv double %16, 1.000000e+02
  %18 = fadd double %17, %9
  %19 = load i32, ptr @hf_ms_if_hdr_ver, align 4
  %20 = tail call ptr (ptr, i32, ptr, i32, i32, double, ptr, ...) @proto_tree_add_double_format_value(ptr noundef %1, i32 noundef %19, ptr noundef %0, i32 noundef 3, i32 noundef 2, double noundef %18, ptr noundef nonnull @.str.805, double noundef %18)
  %21 = load i32, ptr @hf_ms_if_hdr_total_len, align 4
  %22 = tail call ptr @proto_tree_add_item(ptr noundef %1, i32 noundef %21, ptr noundef %0, i32 noundef 5, i32 noundef 2, i32 noundef -2147483648)
  ret void
}